target datalayout = "e-m:e-p270:32:32-p271:32:32-p272:64:64-i64:64-i128:128-f80:128-n8:16:32:64-S128"
target triple = "x86_64-pc-linux-gnu"

@.str.13 = private unnamed_addr constant [3 x i8] c"rb\00", align 1
@.str.14 = private unnamed_addr constant [12 x i8] c"-----BEGIN \00", align 1

; Function Attrs: nounwind uwtable
define hidden i32 @mbedtls_pk_load_file(ptr noundef %0, ptr noundef %1, ptr noundef %2) #0 {
  %4 = alloca i32, align 4
  %5 = alloca ptr, align 8
  %6 = alloca ptr, align 8
  %7 = alloca ptr, align 8
  %8 = alloca ptr, align 8
  %9 = alloca i64, align 8
  %10 = alloca i32, align 4
  store ptr %0, ptr %5, align 8, !tbaa !9
  store ptr %1, ptr %6, align 8, !tbaa !3
  store ptr %2, ptr %7, align 8, !tbaa !32
  call void @llvm.lifetime.start.p0(i64 8, ptr %8) #9
  call void @llvm.lifetime.start.p0(i64 8, ptr %9) #9
  %11 = load ptr, ptr %5, align 8, !tbaa !9
  %12 = call noalias ptr @fopen(ptr noundef %11, ptr noundef @.str.13)
  store ptr %12, ptr %8, align 8, !tbaa !34
  %13 = icmp eq ptr %12, null
  br i1 %13, label %14, label %15

14:                                               ; preds = %3
  store i32 -15872, ptr %4, align 4
  store i32 1, ptr %10, align 4
  br label %78

15:                                               ; preds = %3
  %16 = load ptr, ptr %8, align 8, !tbaa !34
  call void @setbuf(ptr noundef %16, ptr noundef null) #9
  %17 = load ptr, ptr %8, align 8, !tbaa !34
  %18 = call i32 @fseek(ptr noundef %17, i64 noundef 0, i32 noundef 2)
  %19 = load ptr, ptr %8, align 8, !tbaa !34
  %20 = call i64 @ftell(ptr noundef %19)
  store i64 %20, ptr %9, align 8, !tbaa !15
  %21 = icmp eq i64 %20, -1
  br i1 %21, label %22, label %25

22:                                               ; preds = %15
  %23 = load ptr, ptr %8, align 8, !tbaa !34
  %24 = call i32 @fclose(ptr noundef %23)
  store i32 -15872, ptr %4, align 4
  store i32 1, ptr %10, align 4
  br label %78

25:                                               ; preds = %15
  %26 = load ptr, ptr %8, align 8, !tbaa !34
  %27 = call i32 @fseek(ptr noundef %26, i64 noundef 0, i32 noundef 0)
  %28 = load i64, ptr %9, align 8, !tbaa !15
  %29 = load ptr, ptr %7, align 8, !tbaa !32
  store i64 %28, ptr %29, align 8, !tbaa !15
  %30 = load ptr, ptr %7, align 8, !tbaa !32
  %31 = load i64, ptr %30, align 8, !tbaa !15
  %32 = add i64 %31, 1
  %33 = icmp eq i64 %32, 0
  br i1 %33, label %41, label %34

34:                                               ; preds = %25
  %35 = load ptr, ptr %7, align 8, !tbaa !32
  %36 = load i64, ptr %35, align 8, !tbaa !15
  %37 = add i64 %36, 1
  %38 = call noalias ptr @calloc(i64 noundef 1, i64 noundef %37) #10
  %39 = load ptr, ptr %6, align 8, !tbaa !3
  store ptr %38, ptr %39, align 8, !tbaa !9
  %40 = icmp eq ptr %38, null
  br i1 %40, label %41, label %44

41:                                               ; preds = %34, %25
  %42 = load ptr, ptr %8, align 8, !tbaa !34
  %43 = call i32 @fclose(ptr noundef %42)
  store i32 -16256, ptr %4, align 4
  store i32 1, ptr %10, align 4
  br label %78

44:                                               ; preds = %34
  %45 = load ptr, ptr %6, align 8, !tbaa !3
  %46 = load ptr, ptr %45, align 8, !tbaa !9
  %47 = load ptr, ptr %7, align 8, !tbaa !32
  %48 = load i64, ptr %47, align 8, !tbaa !15
  %49 = load ptr, ptr %8, align 8, !tbaa !34
  %50 = call i64 @fread(ptr noundef %46, i64 noundef 1, i64 noundef %48, ptr noundef %49)
  %51 = load ptr, ptr %7, align 8, !tbaa !32
  %52 = load i64, ptr %51, align 8, !tbaa !15
  %53 = icmp ne i64 %50, %52
  br i1 %53, label %54, label %61

54:                                               ; preds = %44
  %55 = load ptr, ptr %8, align 8, !tbaa !34
  %56 = call i32 @fclose(ptr noundef %55)
  %57 = load ptr, ptr %6, align 8, !tbaa !3
  %58 = load ptr, ptr %57, align 8, !tbaa !9
  %59 = load ptr, ptr %7, align 8, !tbaa !32
  %60 = load i64, ptr %59, align 8, !tbaa !15
  call void @mbedtls_zeroize_and_free(ptr noundef %58, i64 noundef %60)
  store i32 -15872, ptr %4, align 4
  store i32 1, ptr %10, align 4
  br label %78

61:                                               ; preds = %44
  %62 = load ptr, ptr %8, align 8, !tbaa !34
  %63 = call i32 @fclose(ptr noundef %62)
  %64 = load ptr, ptr %6, align 8, !tbaa !3
  %65 = load ptr, ptr %64, align 8, !tbaa !9
  %66 = load ptr, ptr %7, align 8, !tbaa !32
  %67 = load i64, ptr %66, align 8, !tbaa !15
  %68 = getelementptr inbounds nuw i8, ptr %65, i64 %67
  store i8 0, ptr %68, align 1, !tbaa !27
  %69 = load ptr, ptr %6, align 8, !tbaa !3
  %70 = load ptr, ptr %69, align 8, !tbaa !9
  %71 = call ptr @strstr(ptr noundef %70, ptr noundef @.str.14) #11
  %72 = icmp ne ptr %71, null
  br i1 %72, label %73, label %77

73:                                               ; preds = %61
  %74 = load ptr, ptr %7, align 8, !tbaa !32
  %75 = load i64, ptr %74, align 8, !tbaa !15
  %76 = add i64 %75, 1
  store i64 %76, ptr %74, align 8, !tbaa !15
  br label %77

77:                                               ; preds = %73, %61
  store i32 0, ptr %4, align 4
  store i32 1, ptr %10, align 4
  br label %78

78:                                               ; preds = %77, %54, %41, %22, %14
  call void @llvm.lifetime.end.p0(i64 8, ptr %9) #9
  call void @llvm.lifetime.end.p0(i64 8, ptr %8) #9
  %79 = load i32, ptr %4, align 4
  ret i32 %79
}