; Function Attrs: nounwind uwtable
define hidden range(i32 -16256, 1) i32 @mbedtls_pk_load_file(ptr noundef readonly captures(none) %0, ptr noundef captures(none) %1, ptr noundef captures(none) %2) local_unnamed_addr #0 {
  %4 = tail call noalias ptr @fopen(ptr noundef %0, ptr noundef nonnull @.str.13)
  %5 = icmp eq ptr %4, null
  br i1 %5, label %33, label %6

6:                                                ; preds = %3
  tail call void @setbuf(ptr noundef nonnull %4, ptr noundef null) #9
  %7 = tail call i32 @fseek(ptr noundef nonnull %4, i64 noundef 0, i32 noundef 2)
  %8 = tail call i64 @ftell(ptr noundef nonnull %4)
  %9 = icmp eq i64 %8, -1
  br i1 %9, label %10, label %12

10:                                               ; preds = %6
  %11 = tail call i32 @fclose(ptr noundef nonnull %4)
  br label %33

12:                                               ; preds = %6
  %13 = tail call i32 @fseek(ptr noundef nonnull %4, i64 noundef 0, i32 noundef 0)
  store i64 %8, ptr %2, align 8, !tbaa !10
  %14 = add nuw i64 %8, 1
  %15 = tail call noalias ptr @calloc(i64 noundef 1, i64 noundef %14) #10
  store ptr %15, ptr %1, align 8, !tbaa !7
  %16 = icmp eq ptr %15, null
  br i1 %16, label %17, label %19

17:                                               ; preds = %12
  %18 = tail call i32 @fclose(ptr noundef nonnull %4)
  br label %33

19:                                               ; preds = %12
  %20 = tail call i64 @fread(ptr noundef nonnull %15, i64 noundef 1, i64 noundef %8, ptr noundef nonnull %4)
  %21 = load i64, ptr %2, align 8, !tbaa !10
  %.not = icmp eq i64 %20, %21
  %22 = tail call i32 @fclose(ptr noundef nonnull %4)
  %23 = load ptr, ptr %1, align 8, !tbaa !7
  %24 = load i64, ptr %2, align 8, !tbaa !10
  br i1 %.not, label %26, label %25

25:                                               ; preds = %19
  tail call void @mbedtls_zeroize_and_free(ptr noundef %23, i64 noundef %24) #9
  br label %33

26:                                               ; preds = %19
  %27 = getelementptr inbounds nuw i8, ptr %23, i64 %24
  store i8 0, ptr %27, align 1, !tbaa !23
  %28 = load ptr, ptr %1, align 8, !tbaa !7
  %29 = tail call ptr @strstr(ptr noundef nonnull dereferenceable(1) %28, ptr noundef nonnull dereferenceable(1) @.str.14) #11
  %.not28 = icmp eq ptr %29, null
  br i1 %.not28, label %33, label %30

30:                                               ; preds = %26
  %31 = load i64, ptr %2, align 8, !tbaa !10
  %32 = add i64 %31, 1
  store i64 %32, ptr %2, align 8, !tbaa !10
  br label %33

33:                                               ; preds = %26, %30, %3, %25, %17, %10
  %.0 = phi i32 [ -15872, %10 ], [ -16256, %17 ], [ -15872, %25 ], [ -15872, %3 ], [ 0, %30 ], [ 0, %26 ]
  ret i32 %.0
}